; ModuleID = 'source-C-CXX/61/1707.c'
source_filename = "source-C-CXX/61/1707.c"
target datalayout = "e-m:e-p270:32:32-p271:32:32-p272:64:64-i64:64-f80:128-n8:16:32:64-S128"
target triple = "x86_64-pc-linux-gnu"

; Function Attrs: nounwind sspstrong uwtable
define dso_local i32 @main() local_unnamed_addr #0 {
  %1 = alloca [250 x i8], align 16
  %2 = getelementptr inbounds [250 x i8], [250 x i8]* %1, i64 0, i64 0
  call void @llvm.lifetime.start.p0i8(i64 250, i8* nonnull %2) #5
  call void @llvm.memset.p0i8.i64(i8* noundef nonnull align 16 dereferenceable(250) %2, i8 0, i64 250, i1 false)
  store i8 44, i8* %2, align 16
  %3 = call i32 (i8*, ...) bitcast (i32 (...)* @gets to i32 (i8*, ...)*)(i8* nonnull %2) #5
  br label %4

4:                                                ; preds = %0, %22
  %5 = phi i64 [ 0, %0 ], [ %23, %22 ]
  %6 = getelementptr inbounds [250 x i8], [250 x i8]* %1, i64 0, i64 %5
  %7 = load i8, i8* %6, align 1, !tbaa !5
  %8 = and i8 %7, -33
  %9 = add i8 %8, -65
  %10 = icmp ult i8 %9, 27
  br i1 %10, label %12, label %11

11:                                               ; preds = %4
  switch i8 %7, label %22 [
    i8 46, label %12
    i8 32, label %14
  ]

12:                                               ; preds = %11, %4
  %13 = zext i8 %7 to i32
  br label %19

14:                                               ; preds = %11
  %15 = add nuw nsw i64 %5, 1
  %16 = getelementptr inbounds [250 x i8], [250 x i8]* %1, i64 0, i64 %15
  %17 = load i8, i8* %16, align 1, !tbaa !5
  %18 = icmp eq i8 %17, 32
  br i1 %18, label %22, label %19

19:                                               ; preds = %14, %12
  %20 = phi i32 [ %13, %12 ], [ 32, %14 ]
  %21 = call i32 @putchar(i32 %20)
  br label %22

22:                                               ; preds = %19, %11, %14
  %23 = add nuw nsw i64 %5, 1
  %24 = icmp eq i64 %23, 200
  br i1 %24, label %25, label %4, !llvm.loop !8

25:                                               ; preds = %22
  call void @llvm.lifetime.end.p0i8(i64 250, i8* nonnull %2) #5
  ret i32 0
}

; Function Attrs: argmemonly mustprogress nofree nosync nounwind willreturn
declare void @llvm.lifetime.start.p0i8(i64 immarg, i8* nocapture) #1

; Function Attrs: argmemonly mustprogress nofree nounwind willreturn writeonly
declare void @llvm.memset.p0i8.i64(i8* nocapture writeonly, i8, i64, i1 immarg) #2

declare i32 @gets(...) local_unnamed_addr #3

; Function Attrs: argmemonly mustprogress nofree nosync nounwind willreturn
declare void @llvm.lifetime.end.p0i8(i64 immarg, i8* nocapture) #1

; Function Attrs: nofree nounwind
declare noundef i32 @putchar(i32 noundef) local_unnamed_addr #4


!llvm.module.flags = !{!0, !1, !2, !3}
!llvm.ident = !{!4}

!0 = !{i32 1, !"wchar_size", i32 4}
!1 = !{i32 7, !"PIC Level", i32 2}
!2 = !{i32 7, !"PIE Level", i32 2}
!3 = !{i32 7, !"uwtable", i32 1}
!4 = !{!"clang version 13.0.0"}
!5 = !{!6, !6, i64 0}
!6 = !{!"omnipotent char", !7, i64 0}
!7 = !{!"Simple C/C++ TBAA"}
!8 = distinct !{!8, !9}
!9 = !{!"llvm.loop.mustprogress"}
